target datalayout = "e-m:e-p270:32:32-p271:32:32-p272:64:64-i64:64-i128:128-f80:128-n8:16:32:64-S128"
target triple = "x86_64-pc-linux-gnu"

%struct.expert_field = type { i32, i32 }

@hf_openflow_v5_tablemod_prop_type = internal global i32 0, align 4
@hf_openflow_v5_tablemod_prop_length = internal global i32 0, align 4
@hf_openflow_v5_tablemod_prop_eviction_flags = internal global i32 0, align 4
@hf_openflow_v5_tablemod_prop_eviction_flags_other = internal global i32 0, align 4
@hf_openflow_v5_tablemod_prop_eviction_flags_importance = internal global i32 0, align 4
@hf_openflow_v5_tablemod_prop_eviction_flags_lifetime = internal global i32 0, align 4
@hf_openflow_v5_tablemod_prop_vacancy_vacancy_down = internal global i32 0, align 4
@hf_openflow_v5_tablemod_prop_vacancy_vacancy_up = internal global i32 0, align 4
@hf_openflow_v5_tablemod_prop_vacancy_vacancy = internal global i32 0, align 4
@hf_openflow_v5_tablemod_prop_vacancy_pad = internal global i32 0, align 4
@hf_openflow_v5_tablemod_prop_experimenter_experimenter = internal global i32 0, align 4
@hf_openflow_v5_tablemod_prop_experimenter_exp_type = internal global i32 0, align 4
@ett_openflow_v5_tablemod_prop = internal global i32 0, align 4
@ett_openflow_v5_tablemod_prop_eviction_flags = internal global i32 0, align 4
@ei_openflow_v5_tablemod_prop_undecoded = internal global %struct.expert_field zeroinitializer, align 4
@ei_openflow_v5_length_too_short = internal global %struct.expert_field zeroinitializer, align 4
@.str.1464 = private unnamed_addr constant [18 x i8] c"Tablemod property\00", align 1
@.str.1465 = private unnamed_addr constant [34 x i8] c"Experimenter table mod. property.\00", align 1
@.str.1466 = private unnamed_addr constant [29 x i8] c"Unknown table mod. property.\00", align 1

; Function Attrs: null_pointer_is_valid sspstrong uwtable
define internal i32 @dissect_openflow_tablemod_prop_v5(ptr noundef %0, ptr noundef %1, ptr noundef %2, i32 noundef %3, i16 noundef zeroext %4) #0 {
  %6 = alloca ptr, align 8
  %7 = alloca ptr, align 8
  %8 = alloca ptr, align 8
  %9 = alloca i32, align 4
  %10 = alloca i16, align 2
  %11 = alloca ptr, align 8
  %12 = alloca ptr, align 8
  %13 = alloca ptr, align 8
  %14 = alloca i16, align 2
  %15 = alloca i16, align 2
  store ptr %0, ptr %6, align 8
  store ptr %1, ptr %7, align 8
  store ptr %2, ptr %8, align 8
  store i32 %3, ptr %9, align 4
  store i16 %4, ptr %10, align 2
  call void @llvm.lifetime.start.p0(i64 8, ptr %11) #5
  call void @llvm.lifetime.start.p0(i64 8, ptr %12) #5
  call void @llvm.lifetime.start.p0(i64 8, ptr %13) #5
  call void @llvm.lifetime.start.p0(i64 2, ptr %14) #5
  call void @llvm.lifetime.start.p0(i64 2, ptr %15) #5
  %16 = load ptr, ptr %6, align 8
  %17 = load i32, ptr %9, align 4
  %18 = call zeroext i16 @tvb_get_ntohs(ptr noundef %16, i32 noundef %17)
  store i16 %18, ptr %14, align 2
  %19 = load ptr, ptr %6, align 8
  %20 = load i32, ptr %9, align 4
  %21 = add i32 %20, 2
  %22 = call zeroext i16 @tvb_get_ntohs(ptr noundef %19, i32 noundef %21)
  store i16 %22, ptr %15, align 2
  %23 = load ptr, ptr %8, align 8
  %24 = load ptr, ptr %6, align 8
  %25 = load i32, ptr %9, align 4
  %26 = load i16, ptr %15, align 2
  %27 = zext i16 %26 to i32
  %28 = load i32, ptr @ett_openflow_v5_tablemod_prop, align 4
  %29 = call ptr @proto_tree_add_subtree(ptr noundef %23, ptr noundef %24, i32 noundef %25, i32 noundef %27, i32 noundef %28, ptr noundef null, ptr noundef @.str.1464)
  store ptr %29, ptr %12, align 8
  %30 = load ptr, ptr %12, align 8
  %31 = load i32, ptr @hf_openflow_v5_tablemod_prop_type, align 4
  %32 = load ptr, ptr %6, align 8
  %33 = load i32, ptr %9, align 4
  %34 = call ptr @proto_tree_add_item(ptr noundef %30, i32 noundef %31, ptr noundef %32, i32 noundef %33, i32 noundef 2, i32 noundef 0)
  %35 = load i32, ptr %9, align 4
  %36 = add i32 %35, 2
  store i32 %36, ptr %9, align 4
  %37 = load ptr, ptr %12, align 8
  %38 = load i32, ptr @hf_openflow_v5_tablemod_prop_length, align 4
  %39 = load ptr, ptr %6, align 8
  %40 = load i32, ptr %9, align 4
  %41 = call ptr @proto_tree_add_item(ptr noundef %37, i32 noundef %38, ptr noundef %39, i32 noundef %40, i32 noundef 2, i32 noundef 0)
  %42 = load i32, ptr %9, align 4
  %43 = add i32 %42, 2
  store i32 %43, ptr %9, align 4
  %44 = load i16, ptr %14, align 2
  %45 = zext i16 %44 to i32
  switch i32 %45, label %139 [
    i32 2, label %46
    i32 3, label %72
    i32 65535, label %101
  ]

46:                                               ; preds = %5
  %47 = load ptr, ptr %12, align 8
  %48 = load i32, ptr @hf_openflow_v5_tablemod_prop_eviction_flags, align 4
  %49 = load ptr, ptr %6, align 8
  %50 = load i32, ptr %9, align 4
  %51 = call ptr @proto_tree_add_item(ptr noundef %47, i32 noundef %48, ptr noundef %49, i32 noundef %50, i32 noundef 4, i32 noundef 0)
  store ptr %51, ptr %11, align 8
  %52 = load ptr, ptr %11, align 8
  %53 = load i32, ptr @ett_openflow_v5_tablemod_prop_eviction_flags, align 4
  %54 = call ptr @proto_item_add_subtree(ptr noundef %52, i32 noundef %53)
  store ptr %54, ptr %13, align 8
  %55 = load ptr, ptr %13, align 8
  %56 = load i32, ptr @hf_openflow_v5_tablemod_prop_eviction_flags_other, align 4
  %57 = load ptr, ptr %6, align 8
  %58 = load i32, ptr %9, align 4
  %59 = call ptr @proto_tree_add_item(ptr noundef %55, i32 noundef %56, ptr noundef %57, i32 noundef %58, i32 noundef 4, i32 noundef 0)
  %60 = load ptr, ptr %13, align 8
  %61 = load i32, ptr @hf_openflow_v5_tablemod_prop_eviction_flags_importance, align 4
  %62 = load ptr, ptr %6, align 8
  %63 = load i32, ptr %9, align 4
  %64 = call ptr @proto_tree_add_item(ptr noundef %60, i32 noundef %61, ptr noundef %62, i32 noundef %63, i32 noundef 4, i32 noundef 0)
  %65 = load ptr, ptr %13, align 8
  %66 = load i32, ptr @hf_openflow_v5_tablemod_prop_eviction_flags_lifetime, align 4
  %67 = load ptr, ptr %6, align 8
  %68 = load i32, ptr %9, align 4
  %69 = call ptr @proto_tree_add_item(ptr noundef %65, i32 noundef %66, ptr noundef %67, i32 noundef %68, i32 noundef 4, i32 noundef 0)
  %70 = load i32, ptr %9, align 4
  %71 = add i32 %70, 4
  store i32 %71, ptr %9, align 4
  br label %163

72:                                               ; preds = %5
  %73 = load ptr, ptr %8, align 8
  %74 = load i32, ptr @hf_openflow_v5_tablemod_prop_vacancy_vacancy_down, align 4
  %75 = load ptr, ptr %6, align 8
  %76 = load i32, ptr %9, align 4
  %77 = call ptr @proto_tree_add_item(ptr noundef %73, i32 noundef %74, ptr noundef %75, i32 noundef %76, i32 noundef 1, i32 noundef 0)
  %78 = load i32, ptr %9, align 4
  %79 = add i32 %78, 1
  store i32 %79, ptr %9, align 4
  %80 = load ptr, ptr %8, align 8
  %81 = load i32, ptr @hf_openflow_v5_tablemod_prop_vacancy_vacancy_up, align 4
  %82 = load ptr, ptr %6, align 8
  %83 = load i32, ptr %9, align 4
  %84 = call ptr @proto_tree_add_item(ptr noundef %80, i32 noundef %81, ptr noundef %82, i32 noundef %83, i32 noundef 1, i32 noundef 0)
  %85 = load i32, ptr %9, align 4
  %86 = add i32 %85, 1
  store i32 %86, ptr %9, align 4
  %87 = load ptr, ptr %8, align 8
  %88 = load i32, ptr @hf_openflow_v5_tablemod_prop_vacancy_vacancy, align 4
  %89 = load ptr, ptr %6, align 8
  %90 = load i32, ptr %9, align 4
  %91 = call ptr @proto_tree_add_item(ptr noundef %87, i32 noundef %88, ptr noundef %89, i32 noundef %90, i32 noundef 1, i32 noundef 0)
  %92 = load i32, ptr %9, align 4
  %93 = add i32 %92, 1
  store i32 %93, ptr %9, align 4
  %94 = load ptr, ptr %8, align 8
  %95 = load i32, ptr @hf_openflow_v5_tablemod_prop_vacancy_pad, align 4
  %96 = load ptr, ptr %6, align 8
  %97 = load i32, ptr %9, align 4
  %98 = call ptr @proto_tree_add_item(ptr noundef %94, i32 noundef %95, ptr noundef %96, i32 noundef %97, i32 noundef 1, i32 noundef 0)
  %99 = load i32, ptr %9, align 4
  %100 = add i32 %99, 1
  store i32 %100, ptr %9, align 4
  br label %163

101:                                              ; preds = %5
  %102 = load i16, ptr %15, align 2
  %103 = zext i16 %102 to i32
  %104 = icmp sle i32 %103, 12
  br i1 %104, label %105, label %111

105:                                              ; preds = %101
  %106 = load ptr, ptr %7, align 8
  %107 = load ptr, ptr %12, align 8
  %108 = call ptr @expert_add_info(ptr noundef %106, ptr noundef %107, ptr noundef @ei_openflow_v5_length_too_short)
  %109 = load i16, ptr %10, align 2
  %110 = zext i16 %109 to i32
  store i32 %110, ptr %9, align 4
  br label %163

111:                                              ; preds = %101
  %112 = load ptr, ptr %8, align 8
  %113 = load i32, ptr @hf_openflow_v5_tablemod_prop_experimenter_experimenter, align 4
  %114 = load ptr, ptr %6, align 8
  %115 = load i32, ptr %9, align 4
  %116 = call ptr @proto_tree_add_item(ptr noundef %112, i32 noundef %113, ptr noundef %114, i32 noundef %115, i32 noundef 4, i32 noundef 0)
  %117 = load i32, ptr %9, align 4
  %118 = add i32 %117, 4
  store i32 %118, ptr %9, align 4
  %119 = load ptr, ptr %8, align 8
  %120 = load i32, ptr @hf_openflow_v5_tablemod_prop_experimenter_exp_type, align 4
  %121 = load ptr, ptr %6, align 8
  %122 = load i32, ptr %9, align 4
  %123 = call ptr @proto_tree_add_item(ptr noundef %119, i32 noundef %120, ptr noundef %121, i32 noundef %122, i32 noundef 4, i32 noundef 0)
  %124 = load i32, ptr %9, align 4
  %125 = add i32 %124, 4
  store i32 %125, ptr %9, align 4
  %126 = load ptr, ptr %8, align 8
  %127 = load ptr, ptr %7, align 8
  %128 = load ptr, ptr %6, align 8
  %129 = load i32, ptr %9, align 4
  %130 = load i16, ptr %15, align 2
  %131 = zext i16 %130 to i32
  %132 = sub i32 %131, 12
  %133 = call ptr (ptr, ptr, ptr, ptr, i32, i32, ptr, ...) @proto_tree_add_expert_format(ptr noundef %126, ptr noundef %127, ptr noundef @ei_openflow_v5_tablemod_prop_undecoded, ptr noundef %128, i32 noundef %129, i32 noundef %132, ptr noundef @.str.1465)
  %134 = load i16, ptr %15, align 2
  %135 = zext i16 %134 to i32
  %136 = sub i32 %135, 12
  %137 = load i32, ptr %9, align 4
  %138 = add i32 %137, %136
  store i32 %138, ptr %9, align 4
  br label %163

139:                                              ; preds = %5
  %140 = load i16, ptr %15, align 2
  %141 = zext i16 %140 to i32
  %142 = icmp sle i32 %141, 4
  br i1 %142, label %143, label %149

143:                                              ; preds = %139
  %144 = load ptr, ptr %7, align 8
  %145 = load ptr, ptr %12, align 8
  %146 = call ptr @expert_add_info(ptr noundef %144, ptr noundef %145, ptr noundef @ei_openflow_v5_length_too_short)
  %147 = load i16, ptr %10, align 2
  %148 = zext i16 %147 to i32
  store i32 %148, ptr %9, align 4
  br label %163

149:                                              ; preds = %139
  %150 = load ptr, ptr %8, align 8
  %151 = load ptr, ptr %7, align 8
  %152 = load ptr, ptr %6, align 8
  %153 = load i32, ptr %9, align 4
  %154 = load i16, ptr %15, align 2
  %155 = zext i16 %154 to i32
  %156 = sub i32 %155, 4
  %157 = call ptr (ptr, ptr, ptr, ptr, i32, i32, ptr, ...) @proto_tree_add_expert_format(ptr noundef %150, ptr noundef %151, ptr noundef @ei_openflow_v5_tablemod_prop_undecoded, ptr noundef %152, i32 noundef %153, i32 noundef %156, ptr noundef @.str.1466)
  %158 = load i16, ptr %15, align 2
  %159 = zext i16 %158 to i32
  %160 = sub i32 %159, 4
  %161 = load i32, ptr %9, align 4
  %162 = add i32 %161, %160
  store i32 %162, ptr %9, align 4
  br label %163

163:                                              ; preds = %149, %143, %111, %105, %72, %46
  %164 = load i32, ptr %9, align 4
  call void @llvm.lifetime.end.p0(i64 2, ptr %15) #5
  call void @llvm.lifetime.end.p0(i64 2, ptr %14) #5
  call void @llvm.lifetime.end.p0(i64 8, ptr %13) #5
  call void @llvm.lifetime.end.p0(i64 8, ptr %12) #5
  call void @llvm.lifetime.end.p0(i64 8, ptr %11) #5
  ret i32 %164
}