; Function Attrs: null_pointer_is_valid sspstrong uwtable
define internal fastcc noundef i32 @dissect_openflow_tablemod_prop_v5(ptr noundef %0, ptr noundef %1, ptr noundef %2, i32 noundef %3, i16 noundef zeroext %4) unnamed_addr #0 {
  %6 = tail call zeroext i16 @tvb_get_ntohs(ptr noundef %0, i32 noundef %3)
  %7 = add i32 %3, 2
  %8 = tail call zeroext i16 @tvb_get_ntohs(ptr noundef %0, i32 noundef %7)
  %9 = zext i16 %8 to i32
  %10 = load i32, ptr @ett_openflow_v5_tablemod_prop, align 4
  %11 = tail call ptr @proto_tree_add_subtree(ptr noundef %2, ptr noundef %0, i32 noundef %3, i32 noundef %9, i32 noundef %10, ptr noundef null, ptr noundef nonnull @.str.1464)
  %12 = load i32, ptr @hf_openflow_v5_tablemod_prop_type, align 4
  %13 = tail call ptr @proto_tree_add_item(ptr noundef %11, i32 noundef %12, ptr noundef %0, i32 noundef %3, i32 noundef 2, i32 noundef 0)
  %14 = load i32, ptr @hf_openflow_v5_tablemod_prop_length, align 4
  %15 = tail call ptr @proto_tree_add_item(ptr noundef %11, i32 noundef %14, ptr noundef %0, i32 noundef %7, i32 noundef 2, i32 noundef 0)
  %16 = add i32 %3, 4
  switch i16 %6, label %57 [
    i16 2, label %17
    i16 3, label %29
    i16 -1, label %42
  ]

17:                                               ; preds = %5
  %18 = load i32, ptr @hf_openflow_v5_tablemod_prop_eviction_flags, align 4
  %19 = tail call ptr @proto_tree_add_item(ptr noundef %11, i32 noundef %18, ptr noundef %0, i32 noundef %16, i32 noundef 4, i32 noundef 0)
  %20 = load i32, ptr @ett_openflow_v5_tablemod_prop_eviction_flags, align 4
  %21 = tail call ptr @proto_item_add_subtree(ptr noundef %19, i32 noundef %20)
  %22 = load i32, ptr @hf_openflow_v5_tablemod_prop_eviction_flags_other, align 4
  %23 = tail call ptr @proto_tree_add_item(ptr noundef %21, i32 noundef %22, ptr noundef %0, i32 noundef %16, i32 noundef 4, i32 noundef 0)
  %24 = load i32, ptr @hf_openflow_v5_tablemod_prop_eviction_flags_importance, align 4
  %25 = tail call ptr @proto_tree_add_item(ptr noundef %21, i32 noundef %24, ptr noundef %0, i32 noundef %16, i32 noundef 4, i32 noundef 0)
  %26 = load i32, ptr @hf_openflow_v5_tablemod_prop_eviction_flags_lifetime, align 4
  %27 = tail call ptr @proto_tree_add_item(ptr noundef %21, i32 noundef %26, ptr noundef %0, i32 noundef %16, i32 noundef 4, i32 noundef 0)
  %28 = add i32 %3, 8
  br label %66

29:                                               ; preds = %5
  %30 = load i32, ptr @hf_openflow_v5_tablemod_prop_vacancy_vacancy_down, align 4
  %31 = tail call ptr @proto_tree_add_item(ptr noundef %2, i32 noundef %30, ptr noundef %0, i32 noundef %16, i32 noundef 1, i32 noundef 0)
  %32 = add i32 %3, 5
  %33 = load i32, ptr @hf_openflow_v5_tablemod_prop_vacancy_vacancy_up, align 4
  %34 = tail call ptr @proto_tree_add_item(ptr noundef %2, i32 noundef %33, ptr noundef %0, i32 noundef %32, i32 noundef 1, i32 noundef 0)
  %35 = add i32 %3, 6
  %36 = load i32, ptr @hf_openflow_v5_tablemod_prop_vacancy_vacancy, align 4
  %37 = tail call ptr @proto_tree_add_item(ptr noundef %2, i32 noundef %36, ptr noundef %0, i32 noundef %35, i32 noundef 1, i32 noundef 0)
  %38 = add i32 %3, 7
  %39 = load i32, ptr @hf_openflow_v5_tablemod_prop_vacancy_pad, align 4
  %40 = tail call ptr @proto_tree_add_item(ptr noundef %2, i32 noundef %39, ptr noundef %0, i32 noundef %38, i32 noundef 1, i32 noundef 0)
  %41 = add i32 %3, 8
  br label %66

42:                                               ; preds = %5
  %43 = icmp ult i16 %8, 13
  br i1 %43, label %44, label %47

44:                                               ; preds = %42
  %45 = tail call ptr @expert_add_info(ptr noundef %1, ptr noundef %11, ptr noundef nonnull @ei_openflow_v5_length_too_short)
  %46 = zext i16 %4 to i32
  br label %66

47:                                               ; preds = %42
  %48 = load i32, ptr @hf_openflow_v5_tablemod_prop_experimenter_experimenter, align 4
  %49 = tail call ptr @proto_tree_add_item(ptr noundef %2, i32 noundef %48, ptr noundef %0, i32 noundef %16, i32 noundef 4, i32 noundef 0)
  %50 = add i32 %3, 8
  %51 = load i32, ptr @hf_openflow_v5_tablemod_prop_experimenter_exp_type, align 4
  %52 = tail call ptr @proto_tree_add_item(ptr noundef %2, i32 noundef %51, ptr noundef %0, i32 noundef %50, i32 noundef 4, i32 noundef 0)
  %53 = add i32 %3, 12
  %54 = add nsw i32 %9, -12
  %55 = tail call ptr (ptr, ptr, ptr, ptr, i32, i32, ptr, ...) @proto_tree_add_expert_format(ptr noundef %2, ptr noundef %1, ptr noundef nonnull @ei_openflow_v5_tablemod_prop_undecoded, ptr noundef %0, i32 noundef %53, i32 noundef %54, ptr noundef nonnull @.str.1465)
  %56 = add i32 %3, %9
  br label %66

57:                                               ; preds = %5
  %58 = icmp ult i16 %8, 5
  br i1 %58, label %59, label %62

59:                                               ; preds = %57
  %60 = tail call ptr @expert_add_info(ptr noundef %1, ptr noundef %11, ptr noundef nonnull @ei_openflow_v5_length_too_short)
  %61 = zext i16 %4 to i32
  br label %66

62:                                               ; preds = %57
  %63 = add nsw i32 %9, -4
  %64 = tail call ptr (ptr, ptr, ptr, ptr, i32, i32, ptr, ...) @proto_tree_add_expert_format(ptr noundef %2, ptr noundef %1, ptr noundef nonnull @ei_openflow_v5_tablemod_prop_undecoded, ptr noundef %0, i32 noundef %16, i32 noundef %63, ptr noundef nonnull @.str.1466)
  %65 = add i32 %3, %9
  br label %66

66:                                               ; preds = %62, %59, %47, %44, %29, %17
  %.0 = phi i32 [ %61, %59 ], [ %65, %62 ], [ %46, %44 ], [ %56, %47 ], [ %41, %29 ], [ %28, %17 ]
  ret i32 %.0
}